target datalayout = "e-m:e-p270:32:32-p271:32:32-p272:64:64-i64:64-i128:128-f80:128-n8:16:32:64-S128"
target triple = "x86_64-pc-linux-gnu"

%struct.darktable_t = type { %struct.dt_codepath_t, i32, i32, ptr, ptr, ptr, ptr, ptr, ptr, ptr, ptr, ptr, ptr, ptr, ptr, ptr, ptr, ptr, ptr, ptr, ptr, ptr, ptr, ptr, ptr, ptr, ptr, ptr, ptr, ptr, [64 x %struct.dt_pthread_mutex_t], %struct.dt_pthread_mutex_t, %struct.dt_pthread_mutex_t, %struct.dt_pthread_mutex_t, %struct.dt_pthread_mutex_t, %struct.dt_pthread_mutex_t, ptr, ptr, ptr, ptr, ptr, ptr, ptr, ptr, ptr, ptr, ptr, ptr, ptr, %struct.dt_lua_state_t, ptr, double, ptr, i32, [47 x i32], i32, i32, ptr, ptr, %struct.dt_sys_resources_t, %struct.dt_backthumb_t, %struct.dt_gimp_t }
%struct.dt_codepath_t = type { i8, [3 x i8] }
%struct.dt_pthread_mutex_t = type { %union.pthread_mutex_t }
%union.pthread_mutex_t = type { %struct.__pthread_mutex_s }
%struct.__pthread_mutex_s = type { i32, i32, i32, i32, i32, i16, i16, %struct.__pthread_internal_list }
%struct.__pthread_internal_list = type { ptr, ptr }
%struct.dt_lua_state_t = type { i32 }
%struct.dt_sys_resources_t = type { i64, i64, ptr, ptr, i32 }
%struct.dt_backthumb_t = type { double, double, i32, i32, i32, i32 }
%struct.dt_gimp_t = type { i32, ptr, ptr, i32, i32 }

@darktable_package_version = external constant [0 x i8], align 1
@.str.17 = private unnamed_addr constant [10 x i8] c"%s-pre-%s\00", align 1
@darktable = external global %struct.darktable_t, align 8
@.str.18 = private unnamed_addr constant [25 x i8] c"[backup failed] %s -> %s\00", align 1

; Function Attrs: nounwind uwtable
define void @dt_database_backup(ptr noundef %0) #0 {
  %2 = alloca ptr, align 8
  %3 = alloca ptr, align 8
  %4 = alloca i32, align 4
  %5 = alloca ptr, align 8
  %6 = alloca ptr, align 8
  %7 = alloca ptr, align 8
  %8 = alloca ptr, align 8
  %9 = alloca i32, align 4
  %10 = alloca i32, align 4
  store ptr %0, ptr %2, align 8, !tbaa !18
  call void @llvm.lifetime.start.p0(i64 8, ptr %3) #13
  %11 = call noalias ptr @g_strdup(ptr noundef @darktable_package_version)
  store ptr %11, ptr %3, align 8, !tbaa !18
  call void @llvm.lifetime.start.p0(i64 4, ptr %4) #13
  store i32 0, ptr %4, align 4, !tbaa !21
  br label %12

12:                                               ; preds = %48, %1
  %13 = load ptr, ptr %3, align 8, !tbaa !18
  %14 = load i32, ptr %4, align 4, !tbaa !21
  %15 = sext i32 %14 to i64
  %16 = getelementptr inbounds i8, ptr %13, i64 %15
  %17 = load i8, ptr %16, align 1, !tbaa !19
  %18 = icmp ne i8 %17, 0
  br i1 %18, label %19, label %51

19:                                               ; preds = %12
  %20 = load ptr, ptr %3, align 8, !tbaa !18
  %21 = load i32, ptr %4, align 4, !tbaa !21
  %22 = sext i32 %21 to i64
  %23 = getelementptr inbounds i8, ptr %20, i64 %22
  %24 = load i8, ptr %23, align 1, !tbaa !19
  %25 = sext i8 %24 to i32
  %26 = icmp slt i32 %25, 48
  br i1 %26, label %35, label %27

27:                                               ; preds = %19
  %28 = load ptr, ptr %3, align 8, !tbaa !18
  %29 = load i32, ptr %4, align 4, !tbaa !21
  %30 = sext i32 %29 to i64
  %31 = getelementptr inbounds i8, ptr %28, i64 %30
  %32 = load i8, ptr %31, align 1, !tbaa !19
  %33 = sext i8 %32 to i32
  %34 = icmp sgt i32 %33, 57
  br i1 %34, label %35, label %48

35:                                               ; preds = %27, %19
  %36 = load ptr, ptr %3, align 8, !tbaa !18
  %37 = load i32, ptr %4, align 4, !tbaa !21
  %38 = sext i32 %37 to i64
  %39 = getelementptr inbounds i8, ptr %36, i64 %38
  %40 = load i8, ptr %39, align 1, !tbaa !19
  %41 = sext i8 %40 to i32
  %42 = icmp ne i32 %41, 46
  br i1 %42, label %43, label %48

43:                                               ; preds = %35
  %44 = load ptr, ptr %3, align 8, !tbaa !18
  %45 = load i32, ptr %4, align 4, !tbaa !21
  %46 = sext i32 %45 to i64
  %47 = getelementptr inbounds i8, ptr %44, i64 %46
  store i8 0, ptr %47, align 1, !tbaa !19
  br label %51

48:                                               ; preds = %35, %27
  %49 = load i32, ptr %4, align 4, !tbaa !21
  %50 = add nsw i32 %49, 1
  store i32 %50, ptr %4, align 4, !tbaa !21
  br label %12

51:                                               ; preds = %43, %12
  call void @llvm.lifetime.start.p0(i64 8, ptr %5) #13
  %52 = load ptr, ptr %2, align 8, !tbaa !18
  %53 = load ptr, ptr %3, align 8, !tbaa !18
  %54 = call noalias ptr (ptr, ...) @g_strdup_printf(ptr noundef @.str.17, ptr noundef %52, ptr noundef %53)
  store ptr %54, ptr %5, align 8, !tbaa !18
  call void @llvm.lifetime.start.p0(i64 8, ptr %6) #13
  store ptr null, ptr %6, align 8, !tbaa !23
  %55 = load ptr, ptr %5, align 8, !tbaa !18
  %56 = call i32 @g_file_test(ptr noundef %55, i32 noundef 16)
  %57 = icmp ne i32 %56, 0
  br i1 %57, label %99, label %58

58:                                               ; preds = %51
  call void @llvm.lifetime.start.p0(i64 8, ptr %7) #13
  %59 = load ptr, ptr %2, align 8, !tbaa !18
  %60 = call ptr @g_file_new_for_path(ptr noundef %59)
  store ptr %60, ptr %7, align 8, !tbaa !25
  call void @llvm.lifetime.start.p0(i64 8, ptr %8) #13
  %61 = load ptr, ptr %5, align 8, !tbaa !18
  %62 = call ptr @g_file_new_for_path(ptr noundef %61)
  store ptr %62, ptr %8, align 8, !tbaa !25
  call void @llvm.lifetime.start.p0(i64 4, ptr %9) #13
  store i32 1, ptr %9, align 4, !tbaa !21
  %63 = load ptr, ptr %2, align 8, !tbaa !18
  %64 = call i32 @g_file_test(ptr noundef %63, i32 noundef 16)
  %65 = icmp ne i32 %64, 0
  br i1 %65, label %66, label %70

66:                                               ; preds = %58
  %67 = load ptr, ptr %7, align 8, !tbaa !25
  %68 = load ptr, ptr %8, align 8, !tbaa !25
  %69 = call i32 @g_file_copy(ptr noundef %67, ptr noundef %68, i32 noundef 0, ptr noundef null, ptr noundef null, ptr noundef null, ptr noundef %6)
  store i32 %69, ptr %9, align 4, !tbaa !21
  br label %81

70:                                               ; preds = %58
  call void @llvm.lifetime.start.p0(i64 4, ptr %10) #13
  %71 = load ptr, ptr %5, align 8, !tbaa !18
  %72 = call i32 (ptr, i32, ...) @open(ptr noundef %71, i32 noundef 64, i32 noundef 128)
  store i32 %72, ptr %10, align 4, !tbaa !21
  %73 = load i32, ptr %10, align 4, !tbaa !21
  %74 = icmp slt i32 %73, 0
  br i1 %74, label %79, label %75

75:                                               ; preds = %70
  %76 = load i32, ptr %10, align 4, !tbaa !21
  %77 = call i32 @g_close(i32 noundef %76, ptr noundef %6)
  %78 = icmp ne i32 %77, 0
  br i1 %78, label %80, label %79

79:                                               ; preds = %75, %70
  store i32 0, ptr %9, align 4, !tbaa !21
  br label %80

80:                                               ; preds = %79, %75
  call void @llvm.lifetime.end.p0(i64 4, ptr %10) #13
  br label %81

81:                                               ; preds = %80, %66
  %82 = load i32, ptr %9, align 4, !tbaa !21
  %83 = icmp ne i32 %82, 0
  br i1 %83, label %96, label %84

84:                                               ; preds = %81
  br label %85

85:                                               ; preds = %84
  %86 = load i32, ptr getelementptr inbounds nuw (%struct.darktable_t, ptr @darktable, i32 0, i32 2), align 8, !tbaa !27
  %87 = xor i32 %86, -1
  %88 = and i32 0, %87
  %89 = icmp ne i32 %88, 0
  br i1 %89, label %93, label %90

90:                                               ; preds = %85
  %91 = load ptr, ptr %2, align 8, !tbaa !18
  %92 = load ptr, ptr %5, align 8, !tbaa !18
  call void (ptr, ...) @dt_print_ext(ptr noundef @.str.18, ptr noundef %91, ptr noundef %92)
  br label %93

93:                                               ; preds = %90, %85
  br label %94

94:                                               ; preds = %93
  br label %95

95:                                               ; preds = %94
  br label %96

96:                                               ; preds = %95, %81
  %97 = load ptr, ptr %7, align 8, !tbaa !25
  call void @g_object_unref(ptr noundef %97)
  %98 = load ptr, ptr %8, align 8, !tbaa !25
  call void @g_object_unref(ptr noundef %98)
  call void @llvm.lifetime.end.p0(i64 4, ptr %9) #13
  call void @llvm.lifetime.end.p0(i64 8, ptr %8) #13
  call void @llvm.lifetime.end.p0(i64 8, ptr %7) #13
  br label %99

99:                                               ; preds = %96, %51
  %100 = load ptr, ptr %3, align 8, !tbaa !18
  call void @g_free(ptr noundef %100)
  %101 = load ptr, ptr %5, align 8, !tbaa !18
  call void @g_free(ptr noundef %101)
  call void @llvm.lifetime.end.p0(i64 8, ptr %6) #13
  call void @llvm.lifetime.end.p0(i64 8, ptr %5) #13
  call void @llvm.lifetime.end.p0(i64 4, ptr %4) #13
  call void @llvm.lifetime.end.p0(i64 8, ptr %3) #13
  ret void
}