; Function Attrs: nounwind uwtable
define void @dt_database_backup(ptr noundef %0) local_unnamed_addr #0 {
  %2 = alloca ptr, align 8
  %3 = tail call noalias ptr @g_strdup(ptr noundef nonnull @darktable_package_version) #18
  %4 = load i8, ptr %3, align 1, !tbaa !16
  %.not44 = icmp eq i8 %4, 0
  br i1 %.not44, label %.loopexit, label %.lr.ph

5:                                                ; preds = %.lr.ph
  %indvars.iv.next = add nuw nsw i64 %indvars.iv, 1
  %6 = getelementptr inbounds nuw i8, ptr %3, i64 %indvars.iv.next
  %7 = load i8, ptr %6, align 1, !tbaa !16
  %.not = icmp eq i8 %7, 0
  br i1 %.not, label %.loopexit, label %.lr.ph

.lr.ph:                                           ; preds = %1, %5
  %indvars.iv = phi i64 [ %indvars.iv.next, %5 ], [ 0, %1 ]
  %8 = phi i8 [ %7, %5 ], [ %4, %1 ]
  %9 = add i8 %8, -48
  %or.cond = icmp ult i8 %9, 10
  %.not32 = icmp eq i8 %8, 46
  %or.cond42 = or i1 %.not32, %or.cond
  br i1 %or.cond42, label %5, label %10

10:                                               ; preds = %.lr.ph
  %11 = getelementptr inbounds nuw i8, ptr %3, i64 %indvars.iv
  store i8 0, ptr %11, align 1, !tbaa !16
  br label %.loopexit

.loopexit:                                        ; preds = %5, %1, %10
  %12 = tail call noalias ptr (ptr, ...) @g_strdup_printf(ptr noundef nonnull @.str.17, ptr noundef %0, ptr noundef nonnull %3) #18
  call void @llvm.lifetime.start.p0(i64 8, ptr nonnull %2) #18
  store ptr null, ptr %2, align 8, !tbaa !19
  %13 = tail call i32 @g_file_test(ptr noundef %12, i32 noundef 16) #18
  %.not33 = icmp eq i32 %13, 0
  br i1 %.not33, label %14, label %25

14:                                               ; preds = %.loopexit
  %15 = tail call ptr @g_file_new_for_path(ptr noundef %0) #18
  %16 = tail call ptr @g_file_new_for_path(ptr noundef %12) #18
  %17 = tail call i32 @g_file_test(ptr noundef %0, i32 noundef 16) #18
  %.not34 = icmp eq i32 %17, 0
  br i1 %.not34, label %18, label %23

18:                                               ; preds = %14
  %19 = tail call i32 (ptr, i32, ...) @open(ptr noundef %12, i32 noundef 64, i32 noundef 128) #18
  %20 = icmp slt i32 %19, 0
  br i1 %20, label %.thread, label %21

21:                                               ; preds = %18
  %22 = call i32 @g_close(i32 noundef %19, ptr noundef nonnull %2) #18
  %.not35 = icmp eq i32 %22, 0
  br i1 %.not35, label %.thread, label %.thread39

23:                                               ; preds = %14
  %24 = call i32 @g_file_copy(ptr noundef %15, ptr noundef %16, i32 noundef 0, ptr noundef null, ptr noundef null, ptr noundef null, ptr noundef nonnull %2) #18
  %.not36 = icmp eq i32 %24, 0
  br i1 %.not36, label %.thread, label %.thread39

.thread:                                          ; preds = %21, %18, %23
  call void (ptr, ...) @dt_print_ext(ptr noundef nonnull @.str.18, ptr noundef %0, ptr noundef %12) #18
  br label %.thread39

.thread39:                                        ; preds = %21, %.thread, %23
  call void @g_object_unref(ptr noundef %15) #18
  call void @g_object_unref(ptr noundef %16) #18
  br label %25

25:                                               ; preds = %.thread39, %.loopexit
  call void @g_free(ptr noundef nonnull %3) #18
  call void @g_free(ptr noundef %12) #18
  call void @llvm.lifetime.end.p0(i64 8, ptr nonnull %2) #18
  ret void
}